target datalayout = "e-m:e-p270:32:32-p271:32:32-p272:64:64-i64:64-i128:128-f80:128-n8:16:32:64-S128"
target triple = "x86_64-pc-linux-gnu"

%class.ElfSymbolTable = type <{ ptr, ptr, %class.ElfSection, i32, [4 x i8] }>
%class.ElfSection = type <{ %struct.Elf64_Shdr, ptr, i32, [4 x i8] }>
%struct.Elf64_Shdr = type { i32, i32, i64, i64, i64, i64, i32, i32, i64, i64 }

; Function Attrs: mustprogress nounwind uwtable
define linkonce_odr hidden noundef ptr @_ZNK10ElfSection14section_headerEv(ptr noundef nonnull align 8 dereferenceable(76) %0) #1 comdat align 2 {
  %2 = alloca ptr, align 8
  store ptr %0, ptr %2, align 8
  %3 = load ptr, ptr %2, align 8
  %4 = getelementptr inbounds %class.ElfSection, ptr %3, i32 0, i32 0
  ret ptr %4
}

; Function Attrs: mustprogress nounwind uwtable
define linkonce_odr hidden noundef i32 @_ZNK10ElfSection6statusEv(ptr noundef nonnull align 8 dereferenceable(76) %0) #1 comdat align 2 {
  %2 = alloca ptr, align 8
  store ptr %0, ptr %2, align 8
  %3 = load ptr, ptr %2, align 8
  %4 = getelementptr inbounds %class.ElfSection, ptr %3, i32 0, i32 2
  %5 = load i32, ptr %4, align 8
  ret i32 %5
}

; Function Attrs: mustprogress nounwind uwtable
define hidden void @_ZN14ElfSymbolTableC2EP8_IO_FILER10Elf64_Shdr(ptr noundef nonnull align 8 dereferenceable(100) %0, ptr noundef %1, ptr noundef nonnull align 8 dereferenceable(64) %2) unnamed_addr #1 align 2 {
  %4 = alloca ptr, align 8
  %5 = alloca ptr, align 8
  %6 = alloca ptr, align 8
  store ptr %0, ptr %4, align 8
  store ptr %1, ptr %5, align 8
  store ptr %2, ptr %6, align 8
  %7 = load ptr, ptr %4, align 8
  %8 = getelementptr inbounds %class.ElfSymbolTable, ptr %7, i32 0, i32 0
  store ptr null, ptr %8, align 8
  %9 = getelementptr inbounds %class.ElfSymbolTable, ptr %7, i32 0, i32 1
  %10 = load ptr, ptr %5, align 8
  store ptr %10, ptr %9, align 8
  %11 = getelementptr inbounds %class.ElfSymbolTable, ptr %7, i32 0, i32 2
  %12 = load ptr, ptr %5, align 8
  %13 = load ptr, ptr %6, align 8
  call void @_ZN10ElfSectionC1EP8_IO_FILERK10Elf64_Shdr(ptr noundef nonnull align 8 dereferenceable(76) %11, ptr noundef %12, ptr noundef nonnull align 8 dereferenceable(64) %13)
  %14 = getelementptr inbounds %class.ElfSymbolTable, ptr %7, i32 0, i32 2
  %15 = call noundef i32 @_ZNK10ElfSection6statusEv(ptr noundef nonnull align 8 dereferenceable(76) %14)
  %16 = getelementptr inbounds %class.ElfSymbolTable, ptr %7, i32 0, i32 3
  store i32 %15, ptr %16, align 8
  %17 = getelementptr inbounds %class.ElfSymbolTable, ptr %7, i32 0, i32 2
  %18 = call noundef ptr @_ZNK10ElfSection14section_headerEv(ptr noundef nonnull align 8 dereferenceable(76) %17)
  %19 = getelementptr inbounds %struct.Elf64_Shdr, ptr %18, i32 0, i32 5
  %20 = load i64, ptr %19, align 8
  %21 = urem i64 %20, 24
  %22 = icmp ne i64 %21, 0
  br i1 %22, label %23, label %25

23:                                               ; preds = %3
  %24 = getelementptr inbounds %class.ElfSymbolTable, ptr %7, i32 0, i32 3
  store i32 2, ptr %24, align 8
  br label %25

25:                                               ; preds = %23, %3
  ret void
}