; Function Attrs: mustprogress nounwind uwtable
define hidden void @_ZN14ElfSymbolTableC2EP8_IO_FILER10Elf64_Shdr(ptr noundef nonnull align 8 dereferenceable(100) %0, ptr noundef %1, ptr noundef nonnull align 8 dereferenceable(64) %2) unnamed_addr #0 align 2 {
  store ptr null, ptr %0, align 8
  %4 = getelementptr inbounds i8, ptr %0, i64 8
  store ptr %1, ptr %4, align 8
  %5 = getelementptr inbounds i8, ptr %0, i64 16
  tail call void @_ZN10ElfSectionC1EP8_IO_FILERK10Elf64_Shdr(ptr noundef nonnull align 8 dereferenceable(76) %5, ptr noundef %1, ptr noundef nonnull align 8 dereferenceable(64) %2) #3
  %6 = getelementptr inbounds i8, ptr %0, i64 88
  %7 = load i32, ptr %6, align 8
  %8 = getelementptr inbounds i8, ptr %0, i64 96
  %9 = getelementptr inbounds i8, ptr %0, i64 48
  %10 = load i64, ptr %9, align 8
  %11 = urem i64 %10, 24
  %.not = icmp eq i64 %11, 0
  %spec.store.select = select i1 %.not, i32 %7, i32 2
  store i32 %spec.store.select, ptr %8, align 8
  ret void
}